; ModuleID = '45/508.c'
source_filename = "45/508.c"
target datalayout = "e-m:e-p270:32:32-p271:32:32-p272:64:64-i64:64-f80:128-n8:16:32:64-S128"
target triple = "x86_64-pc-linux-gnu"

@.str = private unnamed_addr constant [6 x i8] c"%s %s\00", align 1
@.str.1 = private unnamed_addr constant [3 x i8] c"%d\00", align 1

; Function Attrs: noinline nounwind uwtable
define dso_local void @main() #0 {
  %1 = alloca [50 x i8], align 16
  %2 = alloca [50 x i8], align 16
  %3 = alloca i32, align 4
  %4 = alloca i32, align 4
  %5 = alloca i32, align 4
  %6 = alloca i8*, align 8
  %7 = alloca i32, align 4
  %8 = alloca i32, align 4
  %9 = getelementptr inbounds [50 x i8], [50 x i8]* %1, i64 0, i64 0
  %10 = getelementptr inbounds [50 x i8], [50 x i8]* %2, i64 0, i64 0
  %11 = call i32 (i8*, ...) @__isoc99_scanf(i8* getelementptr inbounds ([6 x i8], [6 x i8]* @.str, i64 0, i64 0), i8* %9, i8* %10)
  %12 = getelementptr inbounds [50 x i8], [50 x i8]* %1, i64 0, i64 0
  %13 = call i64 @strlen(i8* %12) #3
  %14 = trunc i64 %13 to i32
  store i32 %14, i32* %4, align 4
  %15 = getelementptr inbounds [50 x i8], [50 x i8]* %2, i64 0, i64 0
  %16 = call i64 @strlen(i8* %15) #3
  %17 = trunc i64 %16 to i32
  store i32 %17, i32* %3, align 4
  %18 = getelementptr inbounds [50 x i8], [50 x i8]* %2, i64 0, i64 0
  %19 = load i32, i32* %3, align 4
  %20 = sext i32 %19 to i64
  %21 = getelementptr inbounds i8, i8* %18, i64 %20
  %22 = getelementptr inbounds i8, i8* %21, i64 -1
  store i8* %22, i8** %6, align 8
  br label %23

23:                                               ; preds = %73, %0
  %24 = load i8*, i8** %6, align 8
  %25 = getelementptr inbounds [50 x i8], [50 x i8]* %2, i64 0, i64 0
  %26 = icmp uge i8* %24, %25
  br i1 %26, label %27, label %76

27:                                               ; preds = %23
  store i32 0, i32* %8, align 4
  store i32 0, i32* %5, align 4
  br label %28

28:                                               ; preds = %55, %27
  %29 = load i32, i32* %5, align 4
  %30 = load i32, i32* %4, align 4
  %31 = icmp slt i32 %29, %30
  br i1 %31, label %32, label %58

32:                                               ; preds = %28
  %33 = load i8*, i8** %6, align 8
  %34 = getelementptr inbounds [50 x i8], [50 x i8]* %2, i64 0, i64 0
  %35 = ptrtoint i8* %33 to i64
  %36 = ptrtoint i8* %34 to i64
  %37 = sub i64 %35, %36
  %38 = load i32, i32* %5, align 4
  %39 = sext i32 %38 to i64
  %40 = sub nsw i64 %37, %39
  %41 = getelementptr inbounds [50 x i8], [50 x i8]* %2, i64 0, i64 %40
  %42 = load i8, i8* %41, align 1
  %43 = sext i8 %42 to i32
  %44 = load i32, i32* %4, align 4
  %45 = sub nsw i32 %44, 1
  %46 = load i32, i32* %5, align 4
  %47 = sub nsw i32 %45, %46
  %48 = sext i32 %47 to i64
  %49 = getelementptr inbounds [50 x i8], [50 x i8]* %1, i64 0, i64 %48
  %50 = load i8, i8* %49, align 1
  %51 = sext i8 %50 to i32
  %52 = icmp ne i32 %43, %51
  br i1 %52, label %53, label %54

53:                                               ; preds = %32
  store i32 1, i32* %8, align 4
  br label %54

54:                                               ; preds = %53, %32
  br label %55

55:                                               ; preds = %54
  %56 = load i32, i32* %5, align 4
  %57 = add nsw i32 %56, 1
  store i32 %57, i32* %5, align 4
  br label %28

58:                                               ; preds = %28
  %59 = load i32, i32* %8, align 4
  %60 = icmp eq i32 %59, 0
  br i1 %60, label %61, label %72

61:                                               ; preds = %58
  %62 = load i8*, i8** %6, align 8
  %63 = getelementptr inbounds [50 x i8], [50 x i8]* %2, i64 0, i64 0
  %64 = ptrtoint i8* %62 to i64
  %65 = ptrtoint i8* %63 to i64
  %66 = sub i64 %64, %65
  %67 = load i32, i32* %4, align 4
  %68 = sext i32 %67 to i64
  %69 = sub nsw i64 %66, %68
  %70 = add nsw i64 %69, 1
  %71 = trunc i64 %70 to i32
  store i32 %71, i32* %7, align 4
  br label %72

72:                                               ; preds = %61, %58
  br label %73

73:                                               ; preds = %72
  %74 = load i8*, i8** %6, align 8
  %75 = getelementptr inbounds i8, i8* %74, i32 -1
  store i8* %75, i8** %6, align 8
  br label %23

76:                                               ; preds = %23
  %77 = load i32, i32* %7, align 4
  %78 = call i32 (i8*, ...) @printf(i8* getelementptr inbounds ([3 x i8], [3 x i8]* @.str.1, i64 0, i64 0), i32 %77)
  ret void
}

declare dso_local i32 @__isoc99_scanf(i8*, ...) #1

; Function Attrs: nounwind readonly
declare dso_local i64 @strlen(i8*) #2

declare dso_local i32 @printf(i8*, ...) #1


!llvm.module.flags = !{!0}
!llvm.ident = !{!1}

!0 = !{i32 1, !"wchar_size", i32 4}
!1 = !{!"clang version 10.0.0-4ubuntu1 "}
